# SymbolsHelper-Confirmed: 6.6.1 amd64 armel armhf i386
libQt6TextToSpeech.so.6 libqt6texttospeech6 #MINVER#
* Build-Depends-Package: qt6-speech-dev
 Qt_6@Qt_6 6.6.1
 Qt_6_PRIVATE_API@Qt_6_PRIVATE_API 6.6.1
 _ZGVZN9QMetaType21registerConverterImplI5QListI6QVoiceE9QIterableI13QMetaSequenceEEEbSt8functionIFbPKvPvEES_S_E10unregister@Qt_6 6.6.1
 _ZGVZN9QMetaType21registerConverterImplI5QListI7QLocaleE9QIterableI13QMetaSequenceEEEbSt8functionIFbPKvPvEES_S_E10unregister@Qt_6 6.6.1
 _ZGVZN9QMetaType23registerMutableViewImplI5QListI6QVoiceE9QIterableI13QMetaSequenceEEEbSt8functionIFbPvS8_EES_S_E10unregister@Qt_6 6.6.1
 _ZGVZN9QMetaType23registerMutableViewImplI5QListI7QLocaleE9QIterableI13QMetaSequenceEEEbSt8functionIFbPvS8_EES_S_E10unregister@Qt_6 6.6.1
 _ZN13QMetaSequence12MetaSequenceI5QListI6QVoiceEE5valueE@Qt_6 6.6.1
 _ZN13QMetaSequence12MetaSequenceI5QListI7QLocaleEE5valueE@Qt_6 6.6.1
 (subst)_ZN13QTextToSpeech10sayingWordERK7QString{qptrdiff}{qptrdiff}{qptrdiff}@Qt_6 6.6.1
 _ZN13QTextToSpeech11qt_metacallEN11QMetaObject4CallEiPPv@Qt_6 6.6.1
 _ZN13QTextToSpeech11qt_metacastEPKc@Qt_6 6.6.1
 _ZN13QTextToSpeech11rateChangedEd@Qt_6 6.6.1
 _ZN13QTextToSpeech12pitchChangedEd@Qt_6 6.6.1
 _ZN13QTextToSpeech12stateChangedENS_5StateE@Qt_6 6.6.1
 _ZN13QTextToSpeech12voiceChangedERK6QVoice@Qt_6 6.6.1
 _ZN13QTextToSpeech13engineChangedERK7QString@Qt_6 6.6.1
 _ZN13QTextToSpeech13errorOccurredENS_11ErrorReasonERK7QString@Qt_6 6.6.1
 _ZN13QTextToSpeech13localeChangedERK7QLocale@Qt_6 6.6.1
 _ZN13QTextToSpeech13volumeChangedEd@Qt_6 6.6.1
 _ZN13QTextToSpeech14synthesizeImplERK7QStringPN9QtPrivate15QSlotObjectBaseEPK7QObjectNS_18SynthesizeOverloadE@Qt_6 6.6.1
 _ZN13QTextToSpeech16availableEnginesEv@Qt_6 6.6.1
 _ZN13QTextToSpeech16staticMetaObjectE@Qt_6 6.6.1
 (subst)_ZN13QTextToSpeech17aboutToSynthesizeE{qptrdiff}@Qt_6 6.6.1
 _ZN13QTextToSpeech3sayERK7QString@Qt_6 6.6.1
 _ZN13QTextToSpeech4stopENS_12BoundaryHintE@Qt_6 6.6.1
 _ZN13QTextToSpeech5pauseENS_12BoundaryHintE@Qt_6 6.6.1
 _ZN13QTextToSpeech6resumeEv@Qt_6 6.6.1
 _ZN13QTextToSpeech7enqueueERK7QString@Qt_6 6.6.1
 _ZN13QTextToSpeech7setRateEd@Qt_6 6.6.1
 _ZN13QTextToSpeech8setPitchEd@Qt_6 6.6.1
 _ZN13QTextToSpeech8setVoiceERK6QVoice@Qt_6 6.6.1
 _ZN13QTextToSpeech9setEngineERK7QStringRK4QMapIS0_8QVariantE@Qt_6 6.6.1
 _ZN13QTextToSpeech9setLocaleERK7QLocale@Qt_6 6.6.1
 _ZN13QTextToSpeech9setVolumeEd@Qt_6 6.6.1
 _ZN13QTextToSpeechC1EP7QObject@Qt_6 6.6.1
 _ZN13QTextToSpeechC1ERK7QStringP7QObject@Qt_6 6.6.1
 _ZN13QTextToSpeechC1ERK7QStringRK4QMapIS0_8QVariantEP7QObject@Qt_6 6.6.1
 _ZN13QTextToSpeechC2EP7QObject@Qt_6 6.6.1
 _ZN13QTextToSpeechC2ERK7QStringP7QObject@Qt_6 6.6.1
 _ZN13QTextToSpeechC2ERK7QStringRK4QMapIS0_8QVariantEP7QObject@Qt_6 6.6.1
 _ZN13QTextToSpeechD0Ev@Qt_6 6.6.1
 _ZN13QTextToSpeechD1Ev@Qt_6 6.6.1
 _ZN13QTextToSpeechD2Ev@Qt_6 6.6.1
 (subst)_ZN19QTextToSpeechEngine10sayingWordERK7QString{qptrdiff}{qptrdiff}@Qt_6 6.6.1
 _ZN19QTextToSpeechEngine11createVoiceERK7QStringRK7QLocaleN6QVoice6GenderENS6_3AgeERK8QVariant@Qt_6 6.6.1
 _ZN19QTextToSpeechEngine11qt_metacallEN11QMetaObject4CallEiPPv@Qt_6 6.6.1
 _ZN19QTextToSpeechEngine11qt_metacastEPKc@Qt_6 6.6.1
 _ZN19QTextToSpeechEngine11synthesizedERK12QAudioFormatRK10QByteArray@Qt_6 6.6.1
 _ZN19QTextToSpeechEngine12stateChangedEN13QTextToSpeech5StateE@Qt_6 6.6.1
 _ZN19QTextToSpeechEngine13errorOccurredEN13QTextToSpeech11ErrorReasonERK7QString@Qt_6 6.6.1
 _ZN19QTextToSpeechEngine16staticMetaObjectE@Qt_6 6.6.1
 _ZN19QTextToSpeechEngine9voiceDataERK6QVoice@Qt_6 6.6.1
 _ZN19QTextToSpeechEngineC1EP7QObject@Qt_6 6.6.1
 _ZN19QTextToSpeechEngineC2EP7QObject@Qt_6 6.6.1
 _ZN19QTextToSpeechEngineD0Ev@Qt_6 6.6.1
 _ZN19QTextToSpeechEngineD1Ev@Qt_6 6.6.1
 _ZN19QTextToSpeechEngineD2Ev@Qt_6 6.6.1
 (optional=templinst)_ZN28QExplicitlySharedDataPointerI13QVoicePrivateED1Ev@Qt_6_PRIVATE_API 6.6.1
 (optional=templinst)_ZN28QExplicitlySharedDataPointerI13QVoicePrivateED2Ev@Qt_6_PRIVATE_API 6.6.1
 _ZN6QVoice10genderNameENS_6GenderE@Qt_6 6.6.1
 _ZN6QVoice16staticMetaObjectE@Qt_6 6.6.1
 _ZN6QVoice7ageNameENS_3AgeE@Qt_6 6.6.1
 _ZN6QVoice8readFromER11QDataStream@Qt_6 6.6.1
 _ZN6QVoiceC1ERK7QStringRK7QLocaleNS_6GenderENS_3AgeERK8QVariant@Qt_6 6.6.1
 _ZN6QVoiceC1ERKS_@Qt_6 6.6.1
 _ZN6QVoiceC1Ev@Qt_6 6.6.1
 _ZN6QVoiceC2ERK7QStringRK7QLocaleNS_6GenderENS_3AgeERK8QVariant@Qt_6 6.6.1
 _ZN6QVoiceC2ERKS_@Qt_6 6.6.1
 _ZN6QVoiceC2Ev@Qt_6 6.6.1
 _ZN6QVoiceD1Ev@Qt_6 6.6.1
 _ZN6QVoiceD2Ev@Qt_6 6.6.1
 _ZN6QVoiceaSERKS_@Qt_6 6.6.1
 _ZNK13QTextToSpeech10metaObjectEv@Qt_6 6.6.1
 _ZNK13QTextToSpeech11errorReasonEv@Qt_6 6.6.1
 _ZNK13QTextToSpeech11errorStringEv@Qt_6 6.6.1
 _ZNK13QTextToSpeech15availableVoicesEv@Qt_6 6.6.1
 _ZNK13QTextToSpeech16availableLocalesEv@Qt_6 6.6.1
 _ZNK13QTextToSpeech18engineCapabilitiesEv@Qt_6 6.6.1
 _ZNK13QTextToSpeech4rateEv@Qt_6 6.6.1
 _ZNK13QTextToSpeech5pitchEv@Qt_6 6.6.1
 _ZNK13QTextToSpeech5stateEv@Qt_6 6.6.1
 _ZNK13QTextToSpeech5voiceEv@Qt_6 6.6.1
 _ZNK13QTextToSpeech6engineEv@Qt_6 6.6.1
 _ZNK13QTextToSpeech6localeEv@Qt_6 6.6.1
 _ZNK13QTextToSpeech6volumeEv@Qt_6 6.6.1
 _ZNK13QTextToSpeech9allVoicesEPK7QLocale@Qt_6 6.6.1
 _ZNK19QTextToSpeechEngine10metaObjectEv@Qt_6 6.6.1
 _ZNK19QTextToSpeechPlugin24createTextToSpeechEngineERK4QMapI7QString8QVariantEP7QObjectPS1_@Qt_6 6.6.1
 _ZNK6QVoice3ageEv@Qt_6 6.6.1
 _ZNK6QVoice4dataEv@Qt_6 6.6.1
 _ZNK6QVoice4nameEv@Qt_6 6.6.1
 _ZNK6QVoice6genderEv@Qt_6 6.6.1
 _ZNK6QVoice6localeEv@Qt_6 6.6.1
 _ZNK6QVoice7isEqualERKS_@Qt_6 6.6.1
 _ZNK6QVoice7writeToER11QDataStream@Qt_6 6.6.1
 _ZTI13QTextToSpeech@Qt_6 6.6.1
 _ZTI19QTextToSpeechEngine@Qt_6 6.6.1
 _ZTI19QTextToSpeechPlugin@Qt_6 6.6.1
 _ZTIZN9QMetaType17registerConverterI5QListI6QVoiceE9QIterableI13QMetaSequenceEN9QtPrivate33QSequentialIterableConvertFunctorIS3_EEEEbT1_EUlPKvPvE_@Qt_6 6.6.1
 _ZTIZN9QMetaType17registerConverterI5QListI7QLocaleE9QIterableI13QMetaSequenceEN9QtPrivate33QSequentialIterableConvertFunctorIS3_EEEEbT1_EUlPKvPvE_@Qt_6 6.6.1
 _ZTIZN9QMetaType19registerMutableViewI5QListI6QVoiceE9QIterableI13QMetaSequenceEN9QtPrivate37QSequentialIterableMutableViewFunctorIS3_EEEEbT1_EUlPvSB_E_@Qt_6 6.6.1
 _ZTIZN9QMetaType19registerMutableViewI5QListI7QLocaleE9QIterableI13QMetaSequenceEN9QtPrivate37QSequentialIterableMutableViewFunctorIS3_EEEEbT1_EUlPvSB_E_@Qt_6 6.6.1
 _ZTS13QTextToSpeech@Qt_6 6.6.1
 _ZTS19QTextToSpeechEngine@Qt_6 6.6.1
 _ZTS19QTextToSpeechPlugin@Qt_6 6.6.1
 _ZTSZN9QMetaType17registerConverterI5QListI6QVoiceE9QIterableI13QMetaSequenceEN9QtPrivate33QSequentialIterableConvertFunctorIS3_EEEEbT1_EUlPKvPvE_@Qt_6 6.6.1
 _ZTSZN9QMetaType17registerConverterI5QListI7QLocaleE9QIterableI13QMetaSequenceEN9QtPrivate33QSequentialIterableConvertFunctorIS3_EEEEbT1_EUlPKvPvE_@Qt_6 6.6.1
 _ZTSZN9QMetaType19registerMutableViewI5QListI6QVoiceE9QIterableI13QMetaSequenceEN9QtPrivate37QSequentialIterableMutableViewFunctorIS3_EEEEbT1_EUlPvSB_E_@Qt_6 6.6.1
 _ZTSZN9QMetaType19registerMutableViewI5QListI7QLocaleE9QIterableI13QMetaSequenceEN9QtPrivate37QSequentialIterableMutableViewFunctorIS3_EEEEbT1_EUlPvSB_E_@Qt_6 6.6.1
 _ZTV13QTextToSpeech@Qt_6 6.6.1
 _ZTV19QTextToSpeechEngine@Qt_6 6.6.1
 _ZTV19QTextToSpeechPlugin@Qt_6 6.6.1
 (optional=templinst)_ZZN9QMetaType21registerConverterImplI5QListI6QVoiceE9QIterableI13QMetaSequenceEEEbSt8functionIFbPKvPvEES_S_E10unregister@Qt_6 6.6.1
 (optional=templinst)_ZZN9QMetaType21registerConverterImplI5QListI7QLocaleE9QIterableI13QMetaSequenceEEEbSt8functionIFbPKvPvEES_S_E10unregister@Qt_6 6.6.1
 (optional=templinst)_ZZN9QMetaType23registerMutableViewImplI5QListI6QVoiceE9QIterableI13QMetaSequenceEEEbSt8functionIFbPvS8_EES_S_E10unregister@Qt_6 6.6.1
 (optional=templinst)_ZZN9QMetaType23registerMutableViewImplI5QListI7QLocaleE9QIterableI13QMetaSequenceEEEbSt8functionIFbPvS8_EES_S_E10unregister@Qt_6 6.6.1
 _Zls6QDebugRK6QVoice@Qt_6 6.6.1
